target datalayout = "e-m:e-p270:32:32-p271:32:32-p272:64:64-i64:64-i128:128-f80:128-n8:16:32:64-S128"
target triple = "x86_64-pc-linux-gnu"

; Function Attrs: nounwind uwtable
define internal void @shrink22(ptr noundef %0, i64 noundef %1, ptr noundef %2, i64 noundef %3, i32 noundef %4, i32 noundef %5) #1 {
  %7 = alloca ptr, align 8
  %8 = alloca i64, align 8
  %9 = alloca ptr, align 8
  %10 = alloca i64, align 8
  %11 = alloca i32, align 4
  %12 = alloca i32, align 4
  %13 = alloca i32, align 4
  %14 = alloca ptr, align 8
  %15 = alloca ptr, align 8
  %16 = alloca ptr, align 8
  store ptr %0, ptr %7, align 8, !tbaa !27
  store i64 %1, ptr %8, align 8, !tbaa !29
  store ptr %2, ptr %9, align 8, !tbaa !27
  store i64 %3, ptr %10, align 8, !tbaa !29
  store i32 %4, ptr %11, align 4, !tbaa !20
  store i32 %5, ptr %12, align 4, !tbaa !20
  call void @llvm.lifetime.start.p0(i64 4, ptr %13) #7
  call void @llvm.lifetime.start.p0(i64 8, ptr %14) #7
  call void @llvm.lifetime.start.p0(i64 8, ptr %15) #7
  call void @llvm.lifetime.start.p0(i64 8, ptr %16) #7
  br label %17

17:                                               ; preds = %182, %6
  %18 = load i32, ptr %12, align 4, !tbaa !20
  %19 = icmp sgt i32 %18, 0
  br i1 %19, label %20, label %185

20:                                               ; preds = %17
  %21 = load ptr, ptr %9, align 8, !tbaa !27
  store ptr %21, ptr %14, align 8, !tbaa !27
  %22 = load ptr, ptr %14, align 8, !tbaa !27
  %23 = load i64, ptr %10, align 8, !tbaa !29
  %24 = getelementptr inbounds i8, ptr %22, i64 %23
  store ptr %24, ptr %15, align 8, !tbaa !27
  %25 = load ptr, ptr %7, align 8, !tbaa !27
  store ptr %25, ptr %16, align 8, !tbaa !27
  %26 = load i32, ptr %11, align 4, !tbaa !20
  store i32 %26, ptr %13, align 4, !tbaa !20
  br label %27

27:                                               ; preds = %133, %20
  %28 = load i32, ptr %13, align 4, !tbaa !20
  %29 = icmp sge i32 %28, 4
  br i1 %29, label %30, label %136

30:                                               ; preds = %27
  %31 = load ptr, ptr %14, align 8, !tbaa !27
  %32 = getelementptr inbounds i8, ptr %31, i64 0
  %33 = load i8, ptr %32, align 1, !tbaa !31
  %34 = zext i8 %33 to i32
  %35 = load ptr, ptr %14, align 8, !tbaa !27
  %36 = getelementptr inbounds i8, ptr %35, i64 1
  %37 = load i8, ptr %36, align 1, !tbaa !31
  %38 = zext i8 %37 to i32
  %39 = add nsw i32 %34, %38
  %40 = load ptr, ptr %15, align 8, !tbaa !27
  %41 = getelementptr inbounds i8, ptr %40, i64 0
  %42 = load i8, ptr %41, align 1, !tbaa !31
  %43 = zext i8 %42 to i32
  %44 = add nsw i32 %39, %43
  %45 = load ptr, ptr %15, align 8, !tbaa !27
  %46 = getelementptr inbounds i8, ptr %45, i64 1
  %47 = load i8, ptr %46, align 1, !tbaa !31
  %48 = zext i8 %47 to i32
  %49 = add nsw i32 %44, %48
  %50 = add nsw i32 %49, 2
  %51 = ashr i32 %50, 2
  %52 = trunc i32 %51 to i8
  %53 = load ptr, ptr %16, align 8, !tbaa !27
  %54 = getelementptr inbounds i8, ptr %53, i64 0
  store i8 %52, ptr %54, align 1, !tbaa !31
  %55 = load ptr, ptr %14, align 8, !tbaa !27
  %56 = getelementptr inbounds i8, ptr %55, i64 2
  %57 = load i8, ptr %56, align 1, !tbaa !31
  %58 = zext i8 %57 to i32
  %59 = load ptr, ptr %14, align 8, !tbaa !27
  %60 = getelementptr inbounds i8, ptr %59, i64 3
  %61 = load i8, ptr %60, align 1, !tbaa !31
  %62 = zext i8 %61 to i32
  %63 = add nsw i32 %58, %62
  %64 = load ptr, ptr %15, align 8, !tbaa !27
  %65 = getelementptr inbounds i8, ptr %64, i64 2
  %66 = load i8, ptr %65, align 1, !tbaa !31
  %67 = zext i8 %66 to i32
  %68 = add nsw i32 %63, %67
  %69 = load ptr, ptr %15, align 8, !tbaa !27
  %70 = getelementptr inbounds i8, ptr %69, i64 3
  %71 = load i8, ptr %70, align 1, !tbaa !31
  %72 = zext i8 %71 to i32
  %73 = add nsw i32 %68, %72
  %74 = add nsw i32 %73, 2
  %75 = ashr i32 %74, 2
  %76 = trunc i32 %75 to i8
  %77 = load ptr, ptr %16, align 8, !tbaa !27
  %78 = getelementptr inbounds i8, ptr %77, i64 1
  store i8 %76, ptr %78, align 1, !tbaa !31
  %79 = load ptr, ptr %14, align 8, !tbaa !27
  %80 = getelementptr inbounds i8, ptr %79, i64 4
  %81 = load i8, ptr %80, align 1, !tbaa !31
  %82 = zext i8 %81 to i32
  %83 = load ptr, ptr %14, align 8, !tbaa !27
  %84 = getelementptr inbounds i8, ptr %83, i64 5
  %85 = load i8, ptr %84, align 1, !tbaa !31
  %86 = zext i8 %85 to i32
  %87 = add nsw i32 %82, %86
  %88 = load ptr, ptr %15, align 8, !tbaa !27
  %89 = getelementptr inbounds i8, ptr %88, i64 4
  %90 = load i8, ptr %89, align 1, !tbaa !31
  %91 = zext i8 %90 to i32
  %92 = add nsw i32 %87, %91
  %93 = load ptr, ptr %15, align 8, !tbaa !27
  %94 = getelementptr inbounds i8, ptr %93, i64 5
  %95 = load i8, ptr %94, align 1, !tbaa !31
  %96 = zext i8 %95 to i32
  %97 = add nsw i32 %92, %96
  %98 = add nsw i32 %97, 2
  %99 = ashr i32 %98, 2
  %100 = trunc i32 %99 to i8
  %101 = load ptr, ptr %16, align 8, !tbaa !27
  %102 = getelementptr inbounds i8, ptr %101, i64 2
  store i8 %100, ptr %102, align 1, !tbaa !31
  %103 = load ptr, ptr %14, align 8, !tbaa !27
  %104 = getelementptr inbounds i8, ptr %103, i64 6
  %105 = load i8, ptr %104, align 1, !tbaa !31
  %106 = zext i8 %105 to i32
  %107 = load ptr, ptr %14, align 8, !tbaa !27
  %108 = getelementptr inbounds i8, ptr %107, i64 7
  %109 = load i8, ptr %108, align 1, !tbaa !31
  %110 = zext i8 %109 to i32
  %111 = add nsw i32 %106, %110
  %112 = load ptr, ptr %15, align 8, !tbaa !27
  %113 = getelementptr inbounds i8, ptr %112, i64 6
  %114 = load i8, ptr %113, align 1, !tbaa !31
  %115 = zext i8 %114 to i32
  %116 = add nsw i32 %111, %115
  %117 = load ptr, ptr %15, align 8, !tbaa !27
  %118 = getelementptr inbounds i8, ptr %117, i64 7
  %119 = load i8, ptr %118, align 1, !tbaa !31
  %120 = zext i8 %119 to i32
  %121 = add nsw i32 %116, %120
  %122 = add nsw i32 %121, 2
  %123 = ashr i32 %122, 2
  %124 = trunc i32 %123 to i8
  %125 = load ptr, ptr %16, align 8, !tbaa !27
  %126 = getelementptr inbounds i8, ptr %125, i64 3
  store i8 %124, ptr %126, align 1, !tbaa !31
  %127 = load ptr, ptr %14, align 8, !tbaa !27
  %128 = getelementptr inbounds i8, ptr %127, i64 8
  store ptr %128, ptr %14, align 8, !tbaa !27
  %129 = load ptr, ptr %15, align 8, !tbaa !27
  %130 = getelementptr inbounds i8, ptr %129, i64 8
  store ptr %130, ptr %15, align 8, !tbaa !27
  %131 = load ptr, ptr %16, align 8, !tbaa !27
  %132 = getelementptr inbounds i8, ptr %131, i64 4
  store ptr %132, ptr %16, align 8, !tbaa !27
  br label %133

133:                                              ; preds = %30
  %134 = load i32, ptr %13, align 4, !tbaa !20
  %135 = sub nsw i32 %134, 4
  store i32 %135, ptr %13, align 4, !tbaa !20
  br label %27, !llvm.loop !32

136:                                              ; preds = %27
  br label %137

137:                                              ; preds = %171, %136
  %138 = load i32, ptr %13, align 4, !tbaa !20
  %139 = icmp sgt i32 %138, 0
  br i1 %139, label %140, label %174

140:                                              ; preds = %137
  %141 = load ptr, ptr %14, align 8, !tbaa !27
  %142 = getelementptr inbounds i8, ptr %141, i64 0
  %143 = load i8, ptr %142, align 1, !tbaa !31
  %144 = zext i8 %143 to i32
  %145 = load ptr, ptr %14, align 8, !tbaa !27
  %146 = getelementptr inbounds i8, ptr %145, i64 1
  %147 = load i8, ptr %146, align 1, !tbaa !31
  %148 = zext i8 %147 to i32
  %149 = add nsw i32 %144, %148
  %150 = load ptr, ptr %15, align 8, !tbaa !27
  %151 = getelementptr inbounds i8, ptr %150, i64 0
  %152 = load i8, ptr %151, align 1, !tbaa !31
  %153 = zext i8 %152 to i32
  %154 = add nsw i32 %149, %153
  %155 = load ptr, ptr %15, align 8, !tbaa !27
  %156 = getelementptr inbounds i8, ptr %155, i64 1
  %157 = load i8, ptr %156, align 1, !tbaa !31
  %158 = zext i8 %157 to i32
  %159 = add nsw i32 %154, %158
  %160 = add nsw i32 %159, 2
  %161 = ashr i32 %160, 2
  %162 = trunc i32 %161 to i8
  %163 = load ptr, ptr %16, align 8, !tbaa !27
  %164 = getelementptr inbounds i8, ptr %163, i64 0
  store i8 %162, ptr %164, align 1, !tbaa !31
  %165 = load ptr, ptr %14, align 8, !tbaa !27
  %166 = getelementptr inbounds i8, ptr %165, i64 2
  store ptr %166, ptr %14, align 8, !tbaa !27
  %167 = load ptr, ptr %15, align 8, !tbaa !27
  %168 = getelementptr inbounds i8, ptr %167, i64 2
  store ptr %168, ptr %15, align 8, !tbaa !27
  %169 = load ptr, ptr %16, align 8, !tbaa !27
  %170 = getelementptr inbounds nuw i8, ptr %169, i32 1
  store ptr %170, ptr %16, align 8, !tbaa !27
  br label %171

171:                                              ; preds = %140
  %172 = load i32, ptr %13, align 4, !tbaa !20
  %173 = add nsw i32 %172, -1
  store i32 %173, ptr %13, align 4, !tbaa !20
  br label %137, !llvm.loop !33

174:                                              ; preds = %137
  %175 = load i64, ptr %10, align 8, !tbaa !29
  %176 = mul nsw i64 2, %175
  %177 = load ptr, ptr %9, align 8, !tbaa !27
  %178 = getelementptr inbounds i8, ptr %177, i64 %176
  store ptr %178, ptr %9, align 8, !tbaa !27
  %179 = load i64, ptr %8, align 8, !tbaa !29
  %180 = load ptr, ptr %7, align 8, !tbaa !27
  %181 = getelementptr inbounds i8, ptr %180, i64 %179
  store ptr %181, ptr %7, align 8, !tbaa !27
  br label %182

182:                                              ; preds = %174
  %183 = load i32, ptr %12, align 4, !tbaa !20
  %184 = add nsw i32 %183, -1
  store i32 %184, ptr %12, align 4, !tbaa !20
  br label %17, !llvm.loop !34

185:                                              ; preds = %17
  call void @llvm.lifetime.end.p0(i64 8, ptr %16) #7
  call void @llvm.lifetime.end.p0(i64 8, ptr %15) #7
  call void @llvm.lifetime.end.p0(i64 8, ptr %14) #7
  call void @llvm.lifetime.end.p0(i64 4, ptr %13) #7
  ret void
}