; Function Attrs: nofree norecurse nosync nounwind memory(argmem: readwrite) uwtable
define internal void @shrink22(ptr noundef writeonly captures(none) %0, i64 noundef %1, ptr noundef readonly captures(none) %2, i64 noundef %3, i32 noundef %4, i32 noundef %5) #2 {
  %7 = icmp sgt i32 %5, 0
  br i1 %7, label %.lr.ph70, label %._crit_edge71

.lr.ph70:                                         ; preds = %6
  %8 = icmp sgt i32 %4, 3
  %9 = shl nsw i64 %3, 1
  br i1 %8, label %.lr.ph.us, label %.lr.ph70.split

.lr.ph.us:                                        ; preds = %.lr.ph70, %._crit_edge.us
  %.05168.us = phi i32 [ %13, %._crit_edge.us ], [ %5, %.lr.ph70 ]
  %.05267.us = phi ptr [ %12, %._crit_edge.us ], [ %0, %.lr.ph70 ]
  %.05366.us = phi ptr [ %11, %._crit_edge.us ], [ %2, %.lr.ph70 ]
  %10 = getelementptr inbounds i8, ptr %.05366.us, i64 %3
  br label %36

._crit_edge.us:                                   ; preds = %.lr.ph65.us, %..preheader_crit_edge.us
  %11 = getelementptr inbounds i8, ptr %.05366.us, i64 %9
  %12 = getelementptr inbounds i8, ptr %.05267.us, i64 %1
  %13 = add nsw i32 %.05168.us, -1
  %14 = icmp sgt i32 %.05168.us, 1
  br i1 %14, label %.lr.ph.us, label %._crit_edge71, !llvm.loop !19

.lr.ph65.us:                                      ; preds = %..preheader_crit_edge.us, %.lr.ph65.us
  %.164.us = phi ptr [ %33, %.lr.ph65.us ], [ %112, %..preheader_crit_edge.us ]
  %.14663.us = phi ptr [ %32, %.lr.ph65.us ], [ %111, %..preheader_crit_edge.us ]
  %.14862.us = phi ptr [ %31, %.lr.ph65.us ], [ %110, %..preheader_crit_edge.us ]
  %.15061.us = phi i32 [ %34, %.lr.ph65.us ], [ %113, %..preheader_crit_edge.us ]
  %15 = load i8, ptr %.14862.us, align 1, !tbaa !20
  %16 = zext i8 %15 to i16
  %17 = getelementptr inbounds nuw i8, ptr %.14862.us, i64 1
  %18 = load i8, ptr %17, align 1, !tbaa !20
  %19 = zext i8 %18 to i16
  %20 = load i8, ptr %.14663.us, align 1, !tbaa !20
  %21 = zext i8 %20 to i16
  %22 = getelementptr inbounds nuw i8, ptr %.14663.us, i64 1
  %23 = load i8, ptr %22, align 1, !tbaa !20
  %24 = zext i8 %23 to i16
  %25 = add nuw nsw i16 %16, 2
  %26 = add nuw nsw i16 %25, %19
  %27 = add nuw nsw i16 %26, %21
  %28 = add nuw nsw i16 %27, %24
  %29 = lshr i16 %28, 2
  %30 = trunc nuw i16 %29 to i8
  store i8 %30, ptr %.164.us, align 1, !tbaa !20
  %31 = getelementptr inbounds nuw i8, ptr %.14862.us, i64 2
  %32 = getelementptr inbounds nuw i8, ptr %.14663.us, i64 2
  %33 = getelementptr inbounds nuw i8, ptr %.164.us, i64 1
  %34 = add nsw i32 %.15061.us, -1
  %35 = icmp samesign ugt i32 %.15061.us, 1
  br i1 %35, label %.lr.ph65.us, label %._crit_edge.us, !llvm.loop !21

36:                                               ; preds = %.lr.ph.us, %36
  %.057.us = phi ptr [ %.05267.us, %.lr.ph.us ], [ %112, %36 ]
  %.04556.us = phi ptr [ %10, %.lr.ph.us ], [ %111, %36 ]
  %.04755.us = phi ptr [ %.05366.us, %.lr.ph.us ], [ %110, %36 ]
  %.04954.us = phi i32 [ %4, %.lr.ph.us ], [ %113, %36 ]
  %37 = load i8, ptr %.04755.us, align 1, !tbaa !20
  %38 = zext i8 %37 to i16
  %39 = getelementptr inbounds nuw i8, ptr %.04755.us, i64 1
  %40 = load i8, ptr %39, align 1, !tbaa !20
  %41 = zext i8 %40 to i16
  %42 = load i8, ptr %.04556.us, align 1, !tbaa !20
  %43 = zext i8 %42 to i16
  %44 = getelementptr inbounds nuw i8, ptr %.04556.us, i64 1
  %45 = load i8, ptr %44, align 1, !tbaa !20
  %46 = zext i8 %45 to i16
  %47 = add nuw nsw i16 %38, 2
  %48 = add nuw nsw i16 %47, %41
  %49 = add nuw nsw i16 %48, %43
  %50 = add nuw nsw i16 %49, %46
  %51 = lshr i16 %50, 2
  %52 = trunc nuw i16 %51 to i8
  store i8 %52, ptr %.057.us, align 1, !tbaa !20
  %53 = getelementptr inbounds nuw i8, ptr %.04755.us, i64 2
  %54 = load i8, ptr %53, align 1, !tbaa !20
  %55 = zext i8 %54 to i16
  %56 = getelementptr inbounds nuw i8, ptr %.04755.us, i64 3
  %57 = load i8, ptr %56, align 1, !tbaa !20
  %58 = zext i8 %57 to i16
  %59 = getelementptr inbounds nuw i8, ptr %.04556.us, i64 2
  %60 = load i8, ptr %59, align 1, !tbaa !20
  %61 = zext i8 %60 to i16
  %62 = getelementptr inbounds nuw i8, ptr %.04556.us, i64 3
  %63 = load i8, ptr %62, align 1, !tbaa !20
  %64 = zext i8 %63 to i16
  %65 = add nuw nsw i16 %55, 2
  %66 = add nuw nsw i16 %65, %58
  %67 = add nuw nsw i16 %66, %61
  %68 = add nuw nsw i16 %67, %64
  %69 = lshr i16 %68, 2
  %70 = trunc nuw i16 %69 to i8
  %71 = getelementptr inbounds nuw i8, ptr %.057.us, i64 1
  store i8 %70, ptr %71, align 1, !tbaa !20
  %72 = getelementptr inbounds nuw i8, ptr %.04755.us, i64 4
  %73 = load i8, ptr %72, align 1, !tbaa !20
  %74 = zext i8 %73 to i16
  %75 = getelementptr inbounds nuw i8, ptr %.04755.us, i64 5
  %76 = load i8, ptr %75, align 1, !tbaa !20
  %77 = zext i8 %76 to i16
  %78 = getelementptr inbounds nuw i8, ptr %.04556.us, i64 4
  %79 = load i8, ptr %78, align 1, !tbaa !20
  %80 = zext i8 %79 to i16
  %81 = getelementptr inbounds nuw i8, ptr %.04556.us, i64 5
  %82 = load i8, ptr %81, align 1, !tbaa !20
  %83 = zext i8 %82 to i16
  %84 = add nuw nsw i16 %74, 2
  %85 = add nuw nsw i16 %84, %77
  %86 = add nuw nsw i16 %85, %80
  %87 = add nuw nsw i16 %86, %83
  %88 = lshr i16 %87, 2
  %89 = trunc nuw i16 %88 to i8
  %90 = getelementptr inbounds nuw i8, ptr %.057.us, i64 2
  store i8 %89, ptr %90, align 1, !tbaa !20
  %91 = getelementptr inbounds nuw i8, ptr %.04755.us, i64 6
  %92 = load i8, ptr %91, align 1, !tbaa !20
  %93 = zext i8 %92 to i16
  %94 = getelementptr inbounds nuw i8, ptr %.04755.us, i64 7
  %95 = load i8, ptr %94, align 1, !tbaa !20
  %96 = zext i8 %95 to i16
  %97 = getelementptr inbounds nuw i8, ptr %.04556.us, i64 6
  %98 = load i8, ptr %97, align 1, !tbaa !20
  %99 = zext i8 %98 to i16
  %100 = getelementptr inbounds nuw i8, ptr %.04556.us, i64 7
  %101 = load i8, ptr %100, align 1, !tbaa !20
  %102 = zext i8 %101 to i16
  %103 = add nuw nsw i16 %93, 2
  %104 = add nuw nsw i16 %103, %96
  %105 = add nuw nsw i16 %104, %99
  %106 = add nuw nsw i16 %105, %102
  %107 = lshr i16 %106, 2
  %108 = trunc nuw i16 %107 to i8
  %109 = getelementptr inbounds nuw i8, ptr %.057.us, i64 3
  store i8 %108, ptr %109, align 1, !tbaa !20
  %110 = getelementptr inbounds nuw i8, ptr %.04755.us, i64 8
  %111 = getelementptr inbounds nuw i8, ptr %.04556.us, i64 8
  %112 = getelementptr inbounds nuw i8, ptr %.057.us, i64 4
  %113 = add nsw i32 %.04954.us, -4
  %114 = icmp sgt i32 %.04954.us, 7
  br i1 %114, label %36, label %..preheader_crit_edge.us, !llvm.loop !22

..preheader_crit_edge.us:                         ; preds = %36
  %115 = icmp sgt i32 %.04954.us, 4
  br i1 %115, label %.lr.ph65.us, label %._crit_edge.us

.lr.ph70.split:                                   ; preds = %.lr.ph70
  %116 = icmp sgt i32 %4, 0
  br i1 %116, label %.preheader.us72, label %._crit_edge71

.preheader.us72:                                  ; preds = %.lr.ph70.split, %._crit_edge.us81
  %.05168.us73 = phi i32 [ %142, %._crit_edge.us81 ], [ %5, %.lr.ph70.split ]
  %.05267.us74 = phi ptr [ %141, %._crit_edge.us81 ], [ %0, %.lr.ph70.split ]
  %.05366.us75 = phi ptr [ %140, %._crit_edge.us81 ], [ %2, %.lr.ph70.split ]
  %117 = getelementptr inbounds i8, ptr %.05366.us75, i64 %3
  br label %118

118:                                              ; preds = %.preheader.us72, %118
  %.164.us76 = phi ptr [ %.05267.us74, %.preheader.us72 ], [ %137, %118 ]
  %.14663.us77 = phi ptr [ %117, %.preheader.us72 ], [ %136, %118 ]
  %.14862.us78 = phi ptr [ %.05366.us75, %.preheader.us72 ], [ %135, %118 ]
  %.15061.us79 = phi i32 [ %4, %.preheader.us72 ], [ %138, %118 ]
  %119 = load i8, ptr %.14862.us78, align 1, !tbaa !20
  %120 = zext i8 %119 to i16
  %121 = getelementptr inbounds nuw i8, ptr %.14862.us78, i64 1
  %122 = load i8, ptr %121, align 1, !tbaa !20
  %123 = zext i8 %122 to i16
  %124 = load i8, ptr %.14663.us77, align 1, !tbaa !20
  %125 = zext i8 %124 to i16
  %126 = getelementptr inbounds nuw i8, ptr %.14663.us77, i64 1
  %127 = load i8, ptr %126, align 1, !tbaa !20
  %128 = zext i8 %127 to i16
  %129 = add nuw nsw i16 %120, 2
  %130 = add nuw nsw i16 %129, %123
  %131 = add nuw nsw i16 %130, %125
  %132 = add nuw nsw i16 %131, %128
  %133 = lshr i16 %132, 2
  %134 = trunc nuw i16 %133 to i8
  store i8 %134, ptr %.164.us76, align 1, !tbaa !20
  %135 = getelementptr inbounds nuw i8, ptr %.14862.us78, i64 2
  %136 = getelementptr inbounds nuw i8, ptr %.14663.us77, i64 2
  %137 = getelementptr inbounds nuw i8, ptr %.164.us76, i64 1
  %138 = add nsw i32 %.15061.us79, -1
  %139 = icmp sgt i32 %.15061.us79, 1
  br i1 %139, label %118, label %._crit_edge.us81, !llvm.loop !21

._crit_edge.us81:                                 ; preds = %118
  %140 = getelementptr inbounds i8, ptr %.05366.us75, i64 %9
  %141 = getelementptr inbounds i8, ptr %.05267.us74, i64 %1
  %142 = add nsw i32 %.05168.us73, -1
  %143 = icmp sgt i32 %.05168.us73, 1
  br i1 %143, label %.preheader.us72, label %._crit_edge71, !llvm.loop !19

._crit_edge71:                                    ; preds = %._crit_edge.us81, %._crit_edge.us, %.lr.ph70.split, %6
  ret void
}